target datalayout = "e-m:e-p270:32:32-p271:32:32-p272:64:64-i64:64-i128:128-f80:128-n8:16:32:64-S128"
target triple = "x86_64-pc-linux-gnu"

%struct.cache_entry = type { %struct.hashmap_entry, %struct.stat_data, i32, i32, i32, i32, i32, %struct.object_id, [0 x i8] }
%struct.hashmap_entry = type { ptr, i32 }
%struct.stat_data = type { %struct.cache_time, %struct.cache_time, i32, i32, i32, i32, i32 }
%struct.cache_time = type { i32, i32 }
%struct.object_id = type { [32 x i8], i32 }

@the_repository = external global ptr, align 8

; Function Attrs: nounwind uwtable
define dso_local ptr @read_blob_entry(ptr noundef %0, ptr noundef %1) #0 {
  %3 = alloca ptr, align 8
  %4 = alloca ptr, align 8
  %5 = alloca ptr, align 8
  %6 = alloca i32, align 4
  %7 = alloca i64, align 8
  %8 = alloca ptr, align 8
  %9 = alloca i32, align 4
  store ptr %0, ptr %4, align 8, !tbaa !4
  store ptr %1, ptr %5, align 8, !tbaa !9
  call void @llvm.lifetime.start.p0(i64 4, ptr %6) #10
  call void @llvm.lifetime.start.p0(i64 8, ptr %7) #10
  call void @llvm.lifetime.start.p0(i64 8, ptr %8) #10
  %10 = load ptr, ptr @the_repository, align 8, !tbaa !11
  %11 = load ptr, ptr %4, align 8, !tbaa !4
  %12 = getelementptr inbounds nuw %struct.cache_entry, ptr %11, i32 0, i32 7
  %13 = call ptr @repo_read_object_file(ptr noundef %10, ptr noundef %12, ptr noundef %6, ptr noundef %7)
  store ptr %13, ptr %8, align 8, !tbaa !13
  %14 = load i64, ptr %7, align 8, !tbaa !14
  %15 = load ptr, ptr %5, align 8, !tbaa !9
  store i64 %14, ptr %15, align 8, !tbaa !14
  %16 = load ptr, ptr %8, align 8, !tbaa !13
  %17 = icmp ne ptr %16, null
  br i1 %17, label %18, label %25

18:                                               ; preds = %2
  %19 = load i32, ptr %6, align 4, !tbaa !16
  %20 = icmp eq i32 %19, 3
  br i1 %20, label %21, label %23

21:                                               ; preds = %18
  %22 = load ptr, ptr %8, align 8, !tbaa !13
  store ptr %22, ptr %3, align 8
  store i32 1, ptr %9, align 4
  br label %26

23:                                               ; preds = %18
  %24 = load ptr, ptr %8, align 8, !tbaa !13
  call void @free(ptr noundef %24) #10
  br label %25

25:                                               ; preds = %23, %2
  store ptr null, ptr %3, align 8
  store i32 1, ptr %9, align 4
  br label %26

26:                                               ; preds = %25, %21
  call void @llvm.lifetime.end.p0(i64 8, ptr %8) #10
  call void @llvm.lifetime.end.p0(i64 8, ptr %7) #10
  call void @llvm.lifetime.end.p0(i64 4, ptr %6) #10
  %27 = load ptr, ptr %3, align 8
  ret ptr %27
}