; Function Attrs: nounwind uwtable
define dso_local ptr @read_blob_entry(ptr noundef %0, ptr noundef writeonly captures(none) initializes((0, 8)) %1) local_unnamed_addr #0 {
  %3 = alloca i32, align 4
  %4 = alloca i64, align 8
  call void @llvm.lifetime.start.p0(i64 4, ptr nonnull %3) #16
  call void @llvm.lifetime.start.p0(i64 8, ptr nonnull %4) #16
  %5 = load ptr, ptr @the_repository, align 8, !tbaa !4
  %6 = getelementptr inbounds nuw i8, ptr %0, i64 72
  %7 = call ptr @repo_read_object_file(ptr noundef %5, ptr noundef nonnull %6, ptr noundef nonnull %3, ptr noundef nonnull %4) #16
  %8 = load i64, ptr %4, align 8, !tbaa !9
  store i64 %8, ptr %1, align 8, !tbaa !9
  %.not = icmp eq ptr %7, null
  br i1 %.not, label %13, label %9

9:                                                ; preds = %2
  %10 = load i32, ptr %3, align 4, !tbaa !11
  %11 = icmp eq i32 %10, 3
  br i1 %11, label %13, label %12

12:                                               ; preds = %9
  call void @free(ptr noundef nonnull %7) #16
  br label %13

13:                                               ; preds = %2, %12, %9
  %.0 = phi ptr [ %7, %9 ], [ null, %12 ], [ null, %2 ]
  call void @llvm.lifetime.end.p0(i64 8, ptr nonnull %4) #16
  call void @llvm.lifetime.end.p0(i64 4, ptr nonnull %3) #16
  ret ptr %.0
}